; Function Attrs: mustprogress noreturn uwtable
define internal void @_ZL5ErrorPKN11flatbuffers12FlatCompilerERKNSt7__cxx1112basic_stringIcSt11char_traitsIcESaIcEEEbb(ptr noundef %flatc, ptr noundef nonnull align 8 dereferenceable(32) %err, i1 noundef zeroext %usage, i1 noundef zeroext %show_exe_name) #2 personality ptr @__gxx_personality_v0 {
entry:
  %ref.tmp = alloca %"class.std::__cxx11::basic_string", align 8
  %ref.tmp5 = alloca %"class.std::__cxx11::basic_string", align 8
  %ref.tmp6 = alloca %"class.std::allocator", align 1
  br i1 %show_exe_name, label %if.then, label %if.end

if.then:                                          ; preds = %entry
  %0 = load ptr, ptr @_ZL14g_program_name, align 8
  %call = tail call i32 (ptr, ...) @printf(ptr noundef nonnull dereferenceable(1) @.str.50, ptr noundef %0)
  br label %if.end

if.end:                                           ; preds = %if.then, %entry
  %tobool3 = icmp ne ptr %flatc, null
  %or.cond = and i1 %tobool3, %usage
  br i1 %or.cond, label %if.then4, label %if.end14

if.then4:                                         ; preds = %if.end
  %1 = load ptr, ptr @stderr, align 8
  %2 = load ptr, ptr @_ZL14g_program_name, align 8
  call void @_ZNSaIcEC1Ev(ptr noundef nonnull align 1 dereferenceable(1) %ref.tmp6) #14
  %call.i3 = invoke noundef ptr @_ZNSt7__cxx1112basic_stringIcSt11char_traitsIcESaIcEE13_M_local_dataEv(ptr noundef nonnull align 8 dereferenceable(32) %ref.tmp5)
          to label %call.i.noexc unwind label %lpad

call.i.noexc:                                     ; preds = %if.then4
  invoke void @_ZNSt7__cxx1112basic_stringIcSt11char_traitsIcESaIcEE12_Alloc_hiderC1EPcRKS3_(ptr noundef nonnull align 8 dereferenceable(8) %ref.tmp5, ptr noundef %call.i3, ptr noundef nonnull align 1 dereferenceable(1) %ref.tmp6)
          to label %.noexc unwind label %lpad

.noexc:                                           ; preds = %call.i.noexc
  %cmp.i = icmp eq ptr %2, null
  br i1 %cmp.i, label %if.then.i, label %if.end.i

if.then.i:                                        ; preds = %.noexc
  invoke void @_ZSt19__throw_logic_errorPKc(ptr noundef nonnull @.str.54) #17
          to label %invoke.cont.i unwind label %lpad.i

invoke.cont.i:                                    ; preds = %if.then.i
  unreachable

lpad.i:                                           ; preds = %if.end.i, %if.then.i
  %3 = landingpad { ptr, i32 }
          cleanup
  call void @_ZNSaIcED2Ev(ptr noundef nonnull align 1 dereferenceable(1) %ref.tmp5) #14
  br label %ehcleanup13

if.end.i:                                         ; preds = %.noexc
  %call.i.i = call noundef i64 @strlen(ptr noundef nonnull dereferenceable(1) %2) #14
  %add.ptr.i = getelementptr inbounds i8, ptr %2, i64 %call.i.i
  invoke void @_ZNSt7__cxx1112basic_stringIcSt11char_traitsIcESaIcEE12_M_constructIPKcEEvT_S8_St20forward_iterator_tag(ptr noundef nonnull align 8 dereferenceable(32) %ref.tmp5, ptr noundef nonnull %2, ptr noundef nonnull %add.ptr.i)
          to label %invoke.cont unwind label %lpad.i

invoke.cont:                                      ; preds = %if.end.i
  invoke void @_ZNK11flatbuffers12FlatCompiler19GetShortUsageStringERKNSt7__cxx1112basic_stringIcSt11char_traitsIcESaIcEEE(ptr nonnull sret(%"class.std::__cxx11::basic_string") align 8 %ref.tmp, ptr noundef nonnull align 8 dereferenceable(64) %flatc, ptr noundef nonnull align 8 dereferenceable(32) %ref.tmp5)
          to label %invoke.cont8 unwind label %lpad7

invoke.cont8:                                     ; preds = %invoke.cont
  %call9 = call noundef ptr @_ZNKSt7__cxx1112basic_stringIcSt11char_traitsIcESaIcEE5c_strEv(ptr noundef nonnull align 8 dereferenceable(32) %ref.tmp) #14
  %call12 = call i32 (ptr, ptr, ...) @fprintf(ptr noundef %1, ptr noundef nonnull @.str.52, ptr noundef %call9) #15
  call void @_ZNSt7__cxx1112basic_stringIcSt11char_traitsIcESaIcEED1Ev(ptr noundef nonnull align 8 dereferenceable(32) %ref.tmp) #14
  call void @_ZNSt7__cxx1112basic_stringIcSt11char_traitsIcESaIcEED1Ev(ptr noundef nonnull align 8 dereferenceable(32) %ref.tmp5) #14
  call void @_ZNSaIcED1Ev(ptr noundef nonnull align 1 dereferenceable(1) %ref.tmp6) #14
  br label %if.end14

lpad:                                             ; preds = %call.i.noexc, %if.then4
  %4 = landingpad { ptr, i32 }
          cleanup
  br label %ehcleanup13

lpad7:                                            ; preds = %invoke.cont
  %5 = landingpad { ptr, i32 }
          cleanup
  call void @_ZNSt7__cxx1112basic_stringIcSt11char_traitsIcESaIcEED1Ev(ptr noundef nonnull align 8 dereferenceable(32) %ref.tmp5) #14
  br label %ehcleanup13

ehcleanup13:                                      ; preds = %lpad, %lpad.i, %lpad7
  %.pn = phi { ptr, i32 } [ %5, %lpad7 ], [ %4, %lpad ], [ %3, %lpad.i ]
  call void @_ZNSaIcED1Ev(ptr noundef nonnull align 1 dereferenceable(1) %ref.tmp6) #14
  resume { ptr, i32 } %.pn

if.end14:                                         ; preds = %invoke.cont8, %if.end
  %6 = load ptr, ptr @stderr, align 8
  %call15 = call noundef ptr @_ZNKSt7__cxx1112basic_stringIcSt11char_traitsIcESaIcEE5c_strEv(ptr noundef nonnull align 8 dereferenceable(32) %err) #14
  %call16 = call i32 (ptr, ptr, ...) @fprintf(ptr noundef %6, ptr noundef nonnull @.str.53, ptr noundef %call15) #15
  call void @exit(i32 noundef 1) #16
  unreachable
}